; ModuleID = '54/357.c'
source_filename = "54/357.c"
target datalayout = "e-m:e-p270:32:32-p271:32:32-p272:64:64-i64:64-f80:128-n8:16:32:64-S128"
target triple = "x86_64-pc-linux-gnu"

@.str = private unnamed_addr constant [3 x i8] c"%d\00", align 1

; Function Attrs: noinline nounwind uwtable
define dso_local void @main() #0 {
  %1 = alloca i32, align 4
  %2 = alloca i32, align 4
  %3 = alloca i32, align 4
  %4 = alloca i32, align 4
  %5 = alloca i32, align 4
  %6 = alloca i32, align 4
  %7 = alloca i32, align 4
  %8 = call i32 (i8*, ...) @__isoc99_scanf(i8* getelementptr inbounds ([3 x i8], [3 x i8]* @.str, i64 0, i64 0), i32* %1)
  %9 = call i32 (i8*, ...) @__isoc99_scanf(i8* getelementptr inbounds ([3 x i8], [3 x i8]* @.str, i64 0, i64 0), i32* %2)
  store i32 1, i32* %3, align 4
  br label %10

10:                                               ; preds = %54, %0
  %11 = load i32, i32* %1, align 4
  %12 = load i32, i32* %3, align 4
  %13 = mul nsw i32 %11, %12
  store i32 %13, i32* %5, align 4
  %14 = load i32, i32* %5, align 4
  store i32 %14, i32* %6, align 4
  store i32 1, i32* %4, align 4
  br label %15

15:                                               ; preds = %40, %10
  %16 = load i32, i32* %4, align 4
  %17 = load i32, i32* %1, align 4
  %18 = icmp slt i32 %16, %17
  br i1 %18, label %19, label %43

19:                                               ; preds = %15
  %20 = load i32, i32* %5, align 4
  %21 = load i32, i32* %2, align 4
  %22 = add nsw i32 %20, %21
  store i32 %22, i32* %7, align 4
  %23 = load i32, i32* %7, align 4
  %24 = load i32, i32* %1, align 4
  %25 = sub nsw i32 %24, 1
  %26 = srem i32 %23, %25
  %27 = icmp eq i32 %26, 0
  br i1 %27, label %28, label %37

28:                                               ; preds = %19
  %29 = load i32, i32* %5, align 4
  %30 = load i32, i32* %2, align 4
  %31 = add nsw i32 %29, %30
  %32 = load i32, i32* %1, align 4
  %33 = mul nsw i32 %31, %32
  %34 = load i32, i32* %1, align 4
  %35 = sub nsw i32 %34, 1
  %36 = sdiv i32 %33, %35
  store i32 %36, i32* %5, align 4
  br label %39

37:                                               ; preds = %19
  %38 = load i32, i32* %6, align 4
  store i32 %38, i32* %5, align 4
  br label %43

39:                                               ; preds = %28
  br label %40

40:                                               ; preds = %39
  %41 = load i32, i32* %4, align 4
  %42 = add nsw i32 %41, 1
  store i32 %42, i32* %4, align 4
  br label %15

43:                                               ; preds = %37, %15
  %44 = load i32, i32* %5, align 4
  %45 = load i32, i32* %6, align 4
  %46 = icmp ne i32 %44, %45
  br i1 %46, label %47, label %53

47:                                               ; preds = %43
  %48 = load i32, i32* %5, align 4
  %49 = load i32, i32* %2, align 4
  %50 = add nsw i32 %48, %49
  store i32 %50, i32* %5, align 4
  %51 = load i32, i32* %5, align 4
  %52 = call i32 (i8*, ...) @printf(i8* getelementptr inbounds ([3 x i8], [3 x i8]* @.str, i64 0, i64 0), i32 %51)
  br label %57

53:                                               ; preds = %43
  br label %54

54:                                               ; preds = %53
  %55 = load i32, i32* %3, align 4
  %56 = add nsw i32 %55, 1
  store i32 %56, i32* %3, align 4
  br label %10

57:                                               ; preds = %47
  ret void
}

declare dso_local i32 @__isoc99_scanf(i8*, ...) #1

declare dso_local i32 @printf(i8*, ...) #1


!llvm.module.flags = !{!0}
!llvm.ident = !{!1}

!0 = !{i32 1, !"wchar_size", i32 4}
!1 = !{!"clang version 10.0.0-4ubuntu1 "}
